target datalayout = "e-m:e-p270:32:32-p271:32:32-p272:64:64-i64:64-i128:128-f80:128-n8:16:32:64-S128"
target triple = "x86_64-pc-linux-gnu"

%struct.Sat_MmFixed_t_ = type { i32, i32, i32, i32, ptr, i32, i32, i32, ptr, i32, i32 }

@.str = private unnamed_addr constant [68 x i8] c"Fixed memory manager: Entry = %5d. Chunk = %5d. Chunks used = %5d.\0A\00", align 1
@.str.1 = private unnamed_addr constant [83 x i8] c"   Entries used = %8d. Entries peak = %8d. Memory used = %8d. Memory alloc = %8d.\0A\00", align 1

; Function Attrs: nounwind uwtable
define void @Sat_MmFixedStop(ptr noundef %0, i32 noundef %1) #0 {
  %3 = alloca ptr, align 8
  %4 = alloca i32, align 4
  %5 = alloca i32, align 4
  %6 = alloca i32, align 4
  store ptr %0, ptr %3, align 8, !tbaa !7
  store i32 %1, ptr %4, align 4, !tbaa !3
  call void @llvm.lifetime.start.p0(i64 4, ptr %5) #7
  %7 = load ptr, ptr %3, align 8, !tbaa !7
  %8 = icmp eq ptr %7, null
  br i1 %8, label %9, label %10

9:                                                ; preds = %2
  store i32 1, ptr %6, align 4
  br label %95

10:                                               ; preds = %2
  %11 = load i32, ptr %4, align 4, !tbaa !3
  %12 = icmp ne i32 %11, 0
  br i1 %12, label %13, label %41

13:                                               ; preds = %10
  %14 = load ptr, ptr %3, align 8, !tbaa !7
  %15 = getelementptr inbounds nuw %struct.Sat_MmFixed_t_, ptr %14, i32 0, i32 0
  %16 = load i32, ptr %15, align 8, !tbaa !10
  %17 = load ptr, ptr %3, align 8, !tbaa !7
  %18 = getelementptr inbounds nuw %struct.Sat_MmFixed_t_, ptr %17, i32 0, i32 5
  %19 = load i32, ptr %18, align 8, !tbaa !17
  %20 = load ptr, ptr %3, align 8, !tbaa !7
  %21 = getelementptr inbounds nuw %struct.Sat_MmFixed_t_, ptr %20, i32 0, i32 7
  %22 = load i32, ptr %21, align 8, !tbaa !19
  %23 = call i32 (ptr, ...) @printf(ptr noundef @.str, i32 noundef %16, i32 noundef %19, i32 noundef %22)
  %24 = load ptr, ptr %3, align 8, !tbaa !7
  %25 = getelementptr inbounds nuw %struct.Sat_MmFixed_t_, ptr %24, i32 0, i32 2
  %26 = load i32, ptr %25, align 8, !tbaa !15
  %27 = load ptr, ptr %3, align 8, !tbaa !7
  %28 = getelementptr inbounds nuw %struct.Sat_MmFixed_t_, ptr %27, i32 0, i32 3
  %29 = load i32, ptr %28, align 4, !tbaa !23
  %30 = load ptr, ptr %3, align 8, !tbaa !7
  %31 = getelementptr inbounds nuw %struct.Sat_MmFixed_t_, ptr %30, i32 0, i32 0
  %32 = load i32, ptr %31, align 8, !tbaa !10
  %33 = load ptr, ptr %3, align 8, !tbaa !7
  %34 = getelementptr inbounds nuw %struct.Sat_MmFixed_t_, ptr %33, i32 0, i32 2
  %35 = load i32, ptr %34, align 8, !tbaa !15
  %36 = mul nsw i32 %32, %35
  %37 = load ptr, ptr %3, align 8, !tbaa !7
  %38 = getelementptr inbounds nuw %struct.Sat_MmFixed_t_, ptr %37, i32 0, i32 10
  %39 = load i32, ptr %38, align 4, !tbaa !22
  %40 = call i32 (ptr, ...) @printf(ptr noundef @.str.1, i32 noundef %26, i32 noundef %29, i32 noundef %36, i32 noundef %39)
  br label %41

41:                                               ; preds = %13, %10
  store i32 0, ptr %5, align 4, !tbaa !3
  br label %42

42:                                               ; preds = %73, %41
  %43 = load i32, ptr %5, align 4, !tbaa !3
  %44 = load ptr, ptr %3, align 8, !tbaa !7
  %45 = getelementptr inbounds nuw %struct.Sat_MmFixed_t_, ptr %44, i32 0, i32 7
  %46 = load i32, ptr %45, align 8, !tbaa !19
  %47 = icmp slt i32 %43, %46
  br i1 %47, label %48, label %76

48:                                               ; preds = %42
  %49 = load ptr, ptr %3, align 8, !tbaa !7
  %50 = getelementptr inbounds nuw %struct.Sat_MmFixed_t_, ptr %49, i32 0, i32 8
  %51 = load ptr, ptr %50, align 8, !tbaa !20
  %52 = load i32, ptr %5, align 4, !tbaa !3
  %53 = sext i32 %52 to i64
  %54 = getelementptr inbounds ptr, ptr %51, i64 %53
  %55 = load ptr, ptr %54, align 8, !tbaa !24
  %56 = icmp ne ptr %55, null
  br i1 %56, label %57, label %71

57:                                               ; preds = %48
  %58 = load ptr, ptr %3, align 8, !tbaa !7
  %59 = getelementptr inbounds nuw %struct.Sat_MmFixed_t_, ptr %58, i32 0, i32 8
  %60 = load ptr, ptr %59, align 8, !tbaa !20
  %61 = load i32, ptr %5, align 4, !tbaa !3
  %62 = sext i32 %61 to i64
  %63 = getelementptr inbounds ptr, ptr %60, i64 %62
  %64 = load ptr, ptr %63, align 8, !tbaa !24
  call void @free(ptr noundef %64) #7
  %65 = load ptr, ptr %3, align 8, !tbaa !7
  %66 = getelementptr inbounds nuw %struct.Sat_MmFixed_t_, ptr %65, i32 0, i32 8
  %67 = load ptr, ptr %66, align 8, !tbaa !20
  %68 = load i32, ptr %5, align 4, !tbaa !3
  %69 = sext i32 %68 to i64
  %70 = getelementptr inbounds ptr, ptr %67, i64 %69
  store ptr null, ptr %70, align 8, !tbaa !24
  br label %72

71:                                               ; preds = %48
  br label %72

72:                                               ; preds = %71, %57
  br label %73

73:                                               ; preds = %72
  %74 = load i32, ptr %5, align 4, !tbaa !3
  %75 = add nsw i32 %74, 1
  store i32 %75, ptr %5, align 4, !tbaa !3
  br label %42, !llvm.loop !25

76:                                               ; preds = %42
  %77 = load ptr, ptr %3, align 8, !tbaa !7
  %78 = getelementptr inbounds nuw %struct.Sat_MmFixed_t_, ptr %77, i32 0, i32 8
  %79 = load ptr, ptr %78, align 8, !tbaa !20
  %80 = icmp ne ptr %79, null
  br i1 %80, label %81, label %87

81:                                               ; preds = %76
  %82 = load ptr, ptr %3, align 8, !tbaa !7
  %83 = getelementptr inbounds nuw %struct.Sat_MmFixed_t_, ptr %82, i32 0, i32 8
  %84 = load ptr, ptr %83, align 8, !tbaa !20
  call void @free(ptr noundef %84) #7
  %85 = load ptr, ptr %3, align 8, !tbaa !7
  %86 = getelementptr inbounds nuw %struct.Sat_MmFixed_t_, ptr %85, i32 0, i32 8
  store ptr null, ptr %86, align 8, !tbaa !20
  br label %88

87:                                               ; preds = %76
  br label %88

88:                                               ; preds = %87, %81
  %89 = load ptr, ptr %3, align 8, !tbaa !7
  %90 = icmp ne ptr %89, null
  br i1 %90, label %91, label %93

91:                                               ; preds = %88
  %92 = load ptr, ptr %3, align 8, !tbaa !7
  call void @free(ptr noundef %92) #7
  store ptr null, ptr %3, align 8, !tbaa !7
  br label %94

93:                                               ; preds = %88
  br label %94

94:                                               ; preds = %93, %91
  store i32 0, ptr %6, align 4
  br label %95

95:                                               ; preds = %94, %9
  call void @llvm.lifetime.end.p0(i64 4, ptr %5) #7
  %96 = load i32, ptr %6, align 4
  switch i32 %96, label %98 [
    i32 0, label %97
    i32 1, label %97
  ]

97:                                               ; preds = %95, %95
  ret void

98:                                               ; preds = %95
  unreachable
}